	.syntax unified
	.arch armv7-a
	.eabi_attribute 27, 3
	.eabi_attribute 28, 1
	.fpu neon
	.eabi_attribute 23, 1
	.eabi_attribute 24, 1
	.eabi_attribute 25, 1
	.eabi_attribute 26, 2
	.eabi_attribute 30, 2
	.eabi_attribute 34, 1
	.eabi_attribute 18, 4
	.thumb
	.file	"stronghold.c"
	.text
.Ltext0:
	.cfi_sections	.debug_frame
	.align	2
	.global	led
	.thumb
	.thumb_func
	.type	led, %function
led:
.LFB126:
	.file 1 "stronghold.c"
	.loc 1 68 0
	.cfi_startproc
	@ args = 0, pretend = 0, frame = 8
	@ frame_needed = 0, uses_anonymous_args = 0
.LVL0:
	push	{r4, r5, r6, lr}
	.cfi_def_cfa_offset 16
	.cfi_offset 4, -16
	.cfi_offset 5, -12
	.cfi_offset 6, -8
	.cfi_offset 14, -4
	movw	r4, #:lower16:.LANCHOR0
	fstmfdd	sp!, {d8}
	.cfi_def_cfa_offset 24
	.cfi_offset 80, -24
	.cfi_offset 81, -20
	.loc 1 71 0
	vmov.i32	d8, #0  @ di
	movt	r4, #:upper16:.LANCHOR0
	.loc 1 72 0
	mov	r5, r4
	.loc 1 68 0
	sub	sp, sp, #16
	.cfi_def_cfa_offset 40
.LVL1:
.L5:
	.loc 1 71 0
	movw	r0, #:lower16:vid_sync
	add	r2, sp, #12
	movs	r3, #0
	movs	r1, #1
	fstd	d8, [sp]	@ int
	movt	r0, #:upper16:vid_sync
	bl	rt_event_wait
.LVL2:
	.loc 1 72 0
	movs	r1, #0
	ldr	r0, [r4, #4]
	bl	rt_task_sleep
.LVL3:
	.loc 1 73 0
	ldr	r0, [r4, #12]
	.loc 1 74 0
	movw	r1, #:lower16:.LC0
	movw	r3, #:lower16:.LC1
	movt	r1, #:upper16:.LC0
	movt	r3, #:upper16:.LC1
	movs	r2, #1
	.loc 1 73 0
	cbz	r0, .L2
	.loc 1 74 0
	ldr	r6, [r5, #8]
	ldr	r0, [r5, #32]
	cmp	r6, #0
	it	eq
	moveq	r1, r3
	bl	write
.LVL4:
.L2:
	.loc 1 75 0
	ldr	r0, [r4]
	movs	r1, #0
	bl	rt_task_sleep
.LVL5:
	.loc 1 76 0
	ldr	r1, [r4, #8]
	movw	r2, #:lower16:.LC1
	movw	r3, #:lower16:.LC0
	movt	r3, #:upper16:.LC0
	movt	r2, #:upper16:.LC1
	ldr	r0, [r4, #32]
	cmp	r1, #0
	ite	ne
	movne	r1, r2
	moveq	r1, r3
	movs	r2, #1
	bl	write
.LVL6:
	.loc 1 77 0
	movw	r0, #:lower16:vid_sync
	movs	r1, #1
	add	r2, sp, #12
	movt	r0, #:upper16:vid_sync
	bl	rt_event_clear
.LVL7:
	.loc 1 78 0
	b	.L5
	.cfi_endproc
.LFE126:
	.size	led, .-led
	.align	2
	.global	init_cougartech
	.thumb
	.thumb_func
	.type	init_cougartech, %function
init_cougartech:
.LFB134:
	.loc 1 251 0
	.cfi_startproc
	@ args = 0, pretend = 0, frame = 0
	@ frame_needed = 0, uses_anonymous_args = 0
	push	{lr}
	.cfi_def_cfa_offset 4
	.cfi_offset 14, -4
	sub	sp, sp, #12
	.cfi_def_cfa_offset 16
	.loc 1 252 0
	movw	r0, #:lower16:.LC2
	movw	r2, #:lower16:.LC3
	movt	r2, #:upper16:.LC3
	movw	r3, #1013
	ldr	r1, .L15
	movt	r0, #:upper16:.LC2
	str	r3, [sp]
	movs	r3, #0
	bl	Py_InitModule4
.LVL8:
	.loc 1 253 0
	add	sp, sp, #12
	.cfi_def_cfa_offset 4
	@ sp needed
	ldr	pc, [sp], #4
.L16:
	.align	2
.L15:
	.word	.LANCHOR0+36
	.cfi_endproc
.LFE134:
	.size	init_cougartech, .-init_cougartech
	.align	2
	.thumb
	.thumb_func
	.type	py_avg, %function
py_avg:
.LFB133:
	.loc 1 240 0
	.cfi_startproc
	@ args = 0, pretend = 0, frame = 0
	@ frame_needed = 0, uses_anonymous_args = 0
	@ link register save eliminated.
.LVL9:
	.loc 1 241 0
	movw	r3, #:lower16:.LANCHOR1
	movw	r0, #:lower16:.LC4
.LVL10:
	movt	r3, #:upper16:.LANCHOR1
	movt	r0, #:upper16:.LC4
	ldr	r1, [r3]
.LVL11:
	b	Py_BuildValue
.LVL12:
	.cfi_endproc
.LFE133:
	.size	py_avg, .-py_avg
	.align	2
	.thumb
	.thumb_func
	.type	py_addrs, %function
py_addrs:
.LFB132:
	.loc 1 235 0
	.cfi_startproc
	@ args = 0, pretend = 0, frame = 0
	@ frame_needed = 0, uses_anonymous_args = 0
	@ link register save eliminated.
.LVL13:
	.loc 1 236 0
	movw	r2, #:lower16:buffers
	movw	r0, #:lower16:.LC5
.LVL14:
	movt	r2, #:upper16:buffers
	movw	r3, #:lower16:.LANCHOR0
	ldr	r2, [r2]
	movt	r0, #:upper16:.LC5
	movt	r3, #:upper16:.LANCHOR0
	ldr	r1, [r2]
.LVL15:
	ldr	r2, [r2, #8]
	b	Py_BuildValue
.LVL16:
	.cfi_endproc
.LFE132:
	.size	py_addrs, .-py_addrs
	.section	.text.unlikely,"ax",%progbits
	.align	2
	.thumb
	.thumb_func
	.type	xioctl.part.0, %function
xioctl.part.0:
.LFB137:
	.loc 1 43 0
	.cfi_startproc
	@ Volatile: function does not return.
	@ args = 0, pretend = 0, frame = 0
	@ frame_needed = 0, uses_anonymous_args = 0
.LVL17:
	push	{r3, lr}
	.cfi_def_cfa_offset 8
	.cfi_offset 3, -8
	.cfi_offset 14, -4
	.loc 1 52 0
	movw	r3, #:lower16:stderr
	movt	r3, #:upper16:stderr
	ldr	r5, [r3]
	bl	__errno_location
.LVL18:
	ldr	r4, [r0]
	mov	r0, r4
	bl	strerror
.LVL19:
	movw	r1, #:lower16:.LC6
	mov	r2, r4
	movt	r1, #:upper16:.LC6
	mov	r3, r0
	mov	r0, r5
	bl	fprintf
.LVL20:
	.loc 1 53 0
	movs	r0, #1
	bl	exit
.LVL21:
	.cfi_endproc
.LFE137:
	.size	xioctl.part.0, .-xioctl.part.0
	.text
	.align	2
	.thumb
	.thumb_func
	.type	init_video.part.1, %function
init_video.part.1:
.LFB138:
	.loc 1 113 0
	.cfi_startproc
	@ args = 0, pretend = 0, frame = 304
	@ frame_needed = 0, uses_anonymous_args = 0
	push	{r4, r5, r6, r7, r8, r9, r10, fp, lr}
	.cfi_def_cfa_offset 36
	.cfi_offset 4, -36
	.cfi_offset 5, -32
	.cfi_offset 6, -28
	.cfi_offset 7, -24
	.cfi_offset 8, -20
	.cfi_offset 9, -16
	.cfi_offset 10, -12
	.cfi_offset 11, -8
	.cfi_offset 14, -4
	sub	sp, sp, #324
	.cfi_def_cfa_offset 360
	.loc 1 126 0
	movs	r2, #204
	.loc 1 132 0
	movw	r5, #:lower16:.LANCHOR0
	.loc 1 126 0
	movs	r1, #0
	add	r0, sp, #116
	bl	memset
.LVL22:
	.loc 1 132 0
	movt	r5, #:upper16:.LANCHOR0
	.loc 1 130 0
	movw	r3, #18242
	.loc 1 127 0
	movs	r2, #1
	.loc 1 130 0
	movt	r3, 13138
	.loc 1 127 0
	str	r2, [sp, #116]
	.loc 1 130 0
	str	r3, [sp, #128]
	.loc 1 128 0
	mov	r2, #320
	.loc 1 129 0
	movs	r3, #240
	.loc 1 132 0
	ldr	r4, [r5, #84]
.LVL23:
	.loc 1 129 0
	str	r3, [sp, #124]
	.loc 1 131 0
	movs	r3, #4
	.loc 1 128 0
	str	r2, [sp, #120]
	.loc 1 131 0
	str	r3, [sp, #132]
	b	.L23
.LVL24:
.L64:
.LBB12:
.LBB13:
	.loc 1 49 0
	bl	__errno_location
.LVL25:
	ldr	r3, [r0]
	cmp	r3, #4
	it	ne
	cmpne	r3, #11
	bne	.L24
.L23:
	.loc 1 48 0
	movw	r1, #22021
	mov	r0, r4
	movt	r1, 49356
	add	r2, sp, #116
.LVL26:
	bl	v4l2_ioctl
.LVL27:
	.loc 1 49 0
	adds	r0, r0, #1
.LVL28:
	beq	.L64
.LBE13:
.LBE12:
	.loc 1 133 0
	ldr	r2, [sp, #128]
	movw	r3, #18242
	movt	r3, 13138
	cmp	r2, r3
	bne	.L65
	.loc 1 137 0
	ldr	r1, [sp, #120]
	ldr	r2, [sp, #124]
	cmp	r1, #320
	beq	.L66
.L26:
	.loc 1 138 0
	movw	r0, #:lower16:.LC8
.LVL29:
	movt	r0, #:upper16:.LC8
	bl	printf
.LVL30:
.L27:
	.loc 1 141 0
	movs	r1, #0
	.loc 1 143 0
	movs	r2, #1
	.loc 1 142 0
	movs	r0, #2
	.loc 1 145 0
	ldr	r4, [r5, #84]
.LVL31:
	.loc 1 141 0
	str	r1, [sp, #40]
	str	r1, [sp, #44]
	.loc 1 142 0
	str	r0, [sp, #28]
	.loc 1 143 0
	str	r2, [sp, #32]
	.loc 1 144 0
	str	r2, [sp, #36]
	b	.L29
.LVL32:
.L67:
.LBB15:
.LBB16:
	.loc 1 49 0
	bl	__errno_location
.LVL33:
	ldr	r3, [r0]
	cmp	r3, #4
	it	ne
	cmpne	r3, #11
	bne	.L24
.L29:
	.loc 1 48 0
	movw	r1, #22024
	mov	r0, r4
	movt	r1, 49172
	add	r2, sp, #28
.LVL34:
	bl	v4l2_ioctl
.LVL35:
	.loc 1 49 0
	adds	r0, r0, #1
.LVL36:
	beq	.L67
.LBE16:
.LBE15:
	.loc 1 146 0
	ldr	r4, [sp, #28]
.LVL37:
	movs	r1, #8
	movw	r7, #:lower16:buffers
	.loc 1 148 0
	movw	r6, #:lower16:n_buffers
	movt	r6, #:upper16:n_buffers
	.loc 1 146 0
	movt	r7, #:upper16:buffers
	mov	r0, r4
.LVL38:
	.loc 1 157 0
	mov	r8, r6
	.loc 1 146 0
	bl	calloc
.LVL39:
	.loc 1 148 0
	movs	r3, #0
	mov	r10, r3
	str	r3, [r6]
	.loc 1 146 0
	str	r0, [r7]
	.loc 1 148 0
	cmp	r4, #0
	beq	.L68
.L32:
	.loc 1 149 0
	add	r0, sp, #48
	movs	r1, #0
	movs	r2, #68
	bl	memset
.LVL40:
	.loc 1 151 0
	movs	r3, #1
	.loc 1 155 0
	ldr	r4, [r5, #84]
.LVL41:
	.loc 1 153 0
	str	r10, [sp, #48]
	.loc 1 151 0
	str	r3, [sp, #52]
	.loc 1 152 0
	str	r3, [sp, #96]
	b	.L31
.LVL42:
.L69:
.LBB17:
.LBB18:
	.loc 1 49 0
	bl	__errno_location
.LVL43:
	ldr	r3, [r0]
	cmp	r3, #4
	it	ne
	cmpne	r3, #11
	bne	.L24
.L31:
	.loc 1 48 0
	movw	r1, #22025
	mov	r0, r4
	movt	r1, 49220
	add	r2, sp, #48
.LVL44:
	bl	v4l2_ioctl
.LVL45:
	.loc 1 49 0
	adds	r0, r0, #1
.LVL46:
	beq	.L69
.LBE18:
.LBE17:
	.loc 1 157 0
	ldr	r9, [r6]
	.loc 1 158 0
	mov	fp, #0
	.loc 1 157 0
	ldr	r10, [r7]
	.loc 1 158 0
	movs	r2, #3
	ldr	r3, [r5, #84]
	mov	r0, fp
.LVL47:
	.loc 1 157 0
	ldr	r1, [sp, #104]
	add	r4, r10, r9, lsl #3
.LVL48:
	.loc 1 158 0
	str	r3, [sp, #20]
	.loc 1 157 0
	str	r1, [r4, #4]
	.loc 1 158 0
	ldr	r3, [sp, #20]
	ldr	r4, [sp, #100]
	str	fp, [sp, #12]
	str	r3, [sp]
	movs	r3, #1
	str	r4, [sp, #8]
	bl	v4l2_mmap
.LVL49:
	.loc 1 162 0
	ldr	r3, [r6]
	ldr	r2, [r7]
	.loc 1 158 0
	str	r0, [r10, r9, lsl #3]
	.loc 1 162 0
	ldr	r2, [r2, r3, lsl #3]
	adds	r2, r2, #1
	beq	.L70
	.loc 1 148 0
	ldr	r2, [sp, #28]
	add	r10, r3, #1
	str	r10, [r8]
	cmp	r10, r2
	bcc	.L32
	.loc 1 167 0
	movw	r8, #:lower16:i
	mov	r7, fp
	movt	r8, #:upper16:i
	str	fp, [r8]
	cmp	r10, #0
	beq	.L37
.L33:
	.loc 1 168 0
	add	r0, sp, #48
.LVL50:
	movs	r1, #0
	movs	r2, #68
	bl	memset
.LVL51:
	.loc 1 169 0
	movs	r3, #1
	.loc 1 172 0
	ldr	r4, [r5, #84]
.LVL52:
	.loc 1 171 0
	str	r7, [sp, #48]
	.loc 1 169 0
	str	r3, [sp, #52]
	.loc 1 170 0
	str	r3, [sp, #96]
	b	.L36
.LVL53:
.L71:
.LBB19:
.LBB20:
	.loc 1 49 0
	bl	__errno_location
.LVL54:
	ldr	r3, [r0]
	cmp	r3, #4
	it	ne
	cmpne	r3, #11
	bne	.L24
.L36:
	.loc 1 48 0
	movw	r1, #22031
	mov	r0, r4
	movt	r1, 49220
	add	r2, sp, #48
.LVL55:
	bl	v4l2_ioctl
.LVL56:
	.loc 1 49 0
	adds	r0, r0, #1
.LVL57:
	beq	.L71
.LBE20:
.LBE19:
	.loc 1 167 0
	ldr	r7, [r8]
	ldr	r3, [r6]
	adds	r7, r7, #1
	str	r7, [r8]
	cmp	r7, r3
	bcc	.L33
.LVL58:
.L37:
	.loc 1 175 0
	movs	r3, #1
	.loc 1 176 0
	ldr	r4, [r5, #84]
.LVL59:
	.loc 1 175 0
	str	r3, [sp, #24]
	b	.L34
.LVL60:
.L72:
.LBB21:
.LBB22:
	.loc 1 49 0
	bl	__errno_location
.LVL61:
	ldr	r3, [r0]
	cmp	r3, #4
	it	ne
	cmpne	r3, #11
	bne	.L24
.L34:
	.loc 1 48 0
	movw	r1, #22034
	mov	r0, r4
	movt	r1, 16388
	add	r2, sp, #24
.LVL62:
	bl	v4l2_ioctl
.LVL63:
	.loc 1 49 0
	adds	r0, r0, #1
.LVL64:
	beq	.L72
.LBE22:
.LBE21:
	.loc 1 177 0
	ldr	r0, [r5, #84]
.LVL65:
	.loc 1 178 0
	add	sp, sp, #324
	.cfi_remember_state
	.cfi_def_cfa_offset 36
	@ sp needed
	pop	{r4, r5, r6, r7, r8, r9, r10, fp, pc}
.LVL66:
.L24:
	.cfi_restore_state
.LBB23:
.LBB14:
	bl	xioctl.part.0
.LVL67:
.L66:
.LBE14:
.LBE23:
	.loc 1 137 0
	cmp	r2, #240
	bne	.L26
	b	.L27
.LVL68:
.L68:
	.loc 1 167 0
	movw	r3, #:lower16:i
	movt	r3, #:upper16:i
	str	r4, [r3]
	b	.L37
.LVL69:
.L65:
	.loc 1 134 0
	movw	r0, #:lower16:.LC7
.LVL70:
	movt	r0, #:upper16:.LC7
	bl	puts
.LVL71:
	.loc 1 135 0
	movs	r0, #1
	bl	exit
.LVL72:
.L70:
	.loc 1 163 0
	movw	r0, #:lower16:.LC9
	movt	r0, #:upper16:.LC9
	bl	perror
.LVL73:
	.loc 1 164 0
	movs	r0, #1
	bl	exit
.LVL74:
	.cfi_endproc
.LFE138:
	.size	init_video.part.1, .-init_video.part.1
	.align	2
	.global	init_video
	.thumb
	.thumb_func
	.type	init_video, %function
init_video:
.LFB128:
	.loc 1 114 0
	.cfi_startproc
	@ args = 0, pretend = 0, frame = 0
	@ frame_needed = 0, uses_anonymous_args = 0
	push	{r4, lr}
	.cfi_def_cfa_offset 8
	.cfi_offset 4, -8
	.cfi_offset 14, -4
	.loc 1 118 0
	movw	r4, #:lower16:.LANCHOR0
	movt	r4, #:upper16:.LANCHOR0
	movw	r1, #2050
	movs	r2, #0
	ldr	r0, [r4, #88]
	bl	v4l2_open
.LVL75:
	.loc 1 119 0
	cmp	r0, #0
	.loc 1 118 0
	str	r0, [r4, #84]
	.loc 1 119 0
	blt	.L74
	.loc 1 122 0
	movw	r0, #:lower16:.LC10
	movs	r1, #1
	movt	r0, #:upper16:.LC10
	bl	open
.LVL76:
	.loc 1 123 0
	cmp	r0, #0
	.loc 1 122 0
	str	r0, [r4, #32]
	.loc 1 123 0
	blt	.L74
	.loc 1 178 0
	pop	{r4, lr}
	.cfi_remember_state
	.cfi_restore 14
	.cfi_restore 4
	.cfi_def_cfa_offset 0
	b	init_video.part.1
.LVL77:
.L74:
	.cfi_restore_state
	pop	{r4, pc}
	.cfi_endproc
.LFE128:
	.size	init_video, .-init_video
	.align	2
	.global	grab_image
	.thumb
	.thumb_func
	.type	grab_image, %function
grab_image:
.LFB129:
	.loc 1 181 0
	.cfi_startproc
	@ args = 0, pretend = 0, frame = 72
	@ frame_needed = 0, uses_anonymous_args = 0
	push	{r4, r5, r6, r7, r8, r9, r10, fp, lr}
	.cfi_def_cfa_offset 36
	.cfi_offset 4, -36
	.cfi_offset 5, -32
	.cfi_offset 6, -28
	.cfi_offset 7, -24
	.cfi_offset 8, -20
	.cfi_offset 9, -16
	.cfi_offset 10, -12
	.cfi_offset 11, -8
	.cfi_offset 14, -4
	movw	r6, #:lower16:fds
	movw	r8, #:lower16:.LANCHOR0
	movw	r5, #:lower16:tv
	movw	r9, #:lower16:r
	sub	sp, sp, #84
	.cfi_def_cfa_offset 120
	movt	r6, #:upper16:fds
	movt	r8, #:upper16:.LANCHOR0
	movt	r5, #:upper16:tv
	movt	r9, #:upper16:r
	mov	r10, #0
	b	.L78
.LVL78:
.L90:
	.loc 1 191 0 discriminator 1
	bl	__errno_location
.LVL79:
	movs	r3, #4
	str	r3, [r0]
.LVL80:
.L78:
	movw	r0, #:lower16:fds
	movs	r1, #0
	movs	r2, #128
	movt	r0, #:upper16:fds
	bl	memset
.LVL81:
	.loc 1 184 0
	ldr	r3, [r8, #84]
	.loc 1 190 0
	movs	r2, #0
	.loc 1 184 0
	movs	r7, #1
	add	ip, r3, #31
	.loc 1 190 0
	adds	r0, r3, r7
	.loc 1 184 0
	asr	lr, r3, #31
	cmp	r3, r2
	it	ge
	movge	ip, r3
	.loc 1 190 0
	movw	r1, #:lower16:fds
	str	r5, [sp]
	.loc 1 184 0
	lsr	fp, lr, #27
	asr	ip, ip, #5
	add	r3, r3, fp
	.loc 1 190 0
	movt	r1, #:upper16:fds
	.loc 1 184 0
	and	r3, r3, #31
	ldr	r4, [r6, ip, lsl #2]
	rsb	lr, fp, r3
	.loc 1 190 0
	mov	r3, r2
	.loc 1 184 0
	lsl	lr, r7, lr
	.loc 1 188 0
	str	r10, [r5, #4]
	.loc 1 184 0
	orr	r4, lr, r4
	str	r4, [r6, ip, lsl #2]
	.loc 1 187 0
	movs	r4, #2
	str	r4, [r5]
	.loc 1 190 0
	bl	select
.LVL82:
	.loc 1 184 0
	movw	fp, #:lower16:.LANCHOR0
	movt	fp, #:upper16:.LANCHOR0
	.loc 1 190 0
	str	r0, [r9]
	.loc 1 191 0
	adds	r0, r0, #1
	beq	.L90
	.loc 1 198 0
	movs	r1, #0
	movs	r2, #68
	add	r0, sp, #12
	bl	memset
.LVL83:
	.loc 1 201 0
	ldr	r4, [fp, #84]
	.loc 1 199 0
	str	r7, [sp, #16]
	.loc 1 200 0
	str	r7, [sp, #60]
.LVL84:
	b	.L80
.LVL85:
.L91:
.LBB29:
.LBB30:
	.loc 1 49 0
	bl	__errno_location
.LVL86:
	ldr	r3, [r0]
	cmp	r3, #4
	it	ne
	cmpne	r3, #11
	bne	.L81
.L80:
	.loc 1 48 0
	movw	r1, #22033
	mov	r0, r4
	movt	r1, 49220
	add	r2, sp, #12
.LVL87:
	bl	v4l2_ioctl
.LVL88:
	.loc 1 49 0
	adds	r0, r0, #1
.LVL89:
	beq	.L91
.LBE30:
.LBE29:
	.loc 1 202 0
	ldr	r1, [sp, #12]
	cmp	r1, #1
	beq	.L92
.LVL90:
.L85:
	.loc 1 204 0
	ldr	r4, [r8, #84]
.LVL91:
	b	.L83
.LVL92:
.L93:
.LBB32:
.LBB33:
	.loc 1 49 0
	bl	__errno_location
.LVL93:
	ldr	r3, [r0]
	cmp	r3, #4
	it	ne
	cmpne	r3, #11
	bne	.L81
.L83:
	.loc 1 48 0
	movw	r1, #22031
	mov	r0, r4
	movt	r1, 49220
	add	r2, sp, #12
.LVL94:
	bl	v4l2_ioctl
.LVL95:
	.loc 1 49 0
	adds	r0, r0, #1
.LVL96:
	beq	.L93
.LBE33:
.LBE32:
	.loc 1 205 0
	add	sp, sp, #84
	.cfi_remember_state
	.cfi_def_cfa_offset 36
	@ sp needed
	pop	{r4, r5, r6, r7, r8, r9, r10, fp, pc}
.LVL97:
.L81:
	.cfi_restore_state
.LBB34:
.LBB31:
	bl	xioctl.part.0
.LVL98:
.L92:
.LBE31:
.LBE34:
	.loc 1 203 0
	movw	r0, #:lower16:vid_sync
.LVL99:
	movt	r0, #:upper16:vid_sync
	bl	rt_event_signal
.LVL100:
	b	.L85
	.cfi_endproc
.LFE129:
	.size	grab_image, .-grab_image
	.align	2
	.global	acquire
	.thumb
	.thumb_func
	.type	acquire, %function
acquire:
.LFB127:
	.loc 1 89 0
	.cfi_startproc
	@ args = 0, pretend = 0, frame = 0
	@ frame_needed = 0, uses_anonymous_args = 0
.LVL101:
	push	{r4, r5, r6, lr}
	.cfi_def_cfa_offset 16
	.cfi_offset 4, -16
	.cfi_offset 5, -12
	.cfi_offset 6, -8
	.cfi_offset 14, -4
	movw	r4, #:lower16:.LANCHOR1
	fstmfdd	sp!, {d8, d9}
	.cfi_def_cfa_offset 32
	.cfi_offset 80, -32
	.cfi_offset 81, -28
	.cfi_offset 82, -24
	.cfi_offset 83, -20
	movw	r6, #:lower16:.LANCHOR0
	.loc 1 93 0
	bl	init_video
.LVL102:
	movt	r4, #:upper16:.LANCHOR1
	.loc 1 94 0
	bl	rt_timer_read
.LVL103:
	movt	r6, #:upper16:.LANCHOR0
	.loc 1 99 0
	fldd	d8, .L97
	.loc 1 100 0
	flds	s18, .L97+8
	.loc 1 94 0
	mov	r5, r0
.LVL104:
.L95:
	.loc 1 96 0 discriminator 1
	bl	grab_image
.LVL105:
	.loc 1 97 0 discriminator 1
	bl	rt_timer_read
.LVL106:
	.loc 1 99 0 discriminator 1
	flds	s15, [r4, #4]
	fcvtds	d16, s15
	.loc 1 98 0 discriminator 1
	subs	r3, r0, r5
	.loc 1 101 0 discriminator 1
	mov	r5, r0
	.loc 1 98 0 discriminator 1
	str	r3, [r4]
	.loc 1 99 0 discriminator 1
	fmsr	s14, r3	@ int
	fsitos	s14, s14
	fsubs	s14, s14, s15
	fcvtds	d17, s14
	fmacd	d16, d17, d8
	fcvtsd	s15, d16
	.loc 1 100 0 discriminator 1
	fdivs	s14, s18, s15
	.loc 1 99 0 discriminator 1
	fsts	s15, [r4, #4]
	.loc 1 100 0 discriminator 1
	fsts	s14, [r6, #24]
.LVL107:
	.loc 1 102 0 discriminator 1
	b	.L95
.L98:
	.align	3
.L97:
	.word	-1717986918
	.word	1069128089
	.word	1315859240
	.cfi_endproc
.LFE127:
	.size	acquire, .-acquire
	.align	2
	.global	close_video
	.thumb
	.thumb_func
	.type	close_video, %function
close_video:
.LFB130:
	.loc 1 208 0
	.cfi_startproc
	@ args = 0, pretend = 0, frame = 8
	@ frame_needed = 0, uses_anonymous_args = 0
	push	{r4, r5, r6, r7, lr}
	.cfi_def_cfa_offset 20
	.cfi_offset 4, -20
	.cfi_offset 5, -16
	.cfi_offset 6, -12
	.cfi_offset 7, -8
	.cfi_offset 14, -4
	sub	sp, sp, #12
	.cfi_def_cfa_offset 32
	.loc 1 211 0
	movw	r5, #:lower16:.LANCHOR0
	.loc 1 210 0
	add	r4, sp, #8
	.loc 1 211 0
	movt	r5, #:upper16:.LANCHOR0
	.loc 1 210 0
	movs	r3, #1
	.loc 1 211 0
	ldr	r6, [r5, #84]
.LVL108:
	.loc 1 210 0
	str	r3, [r4, #-4]!
	b	.L101
.LVL109:
.L113:
.LBB37:
.LBB38:
	.loc 1 49 0
	bl	__errno_location
.LVL110:
	ldr	r3, [r0]
	cmp	r3, #4
	it	ne
	cmpne	r3, #11
	bne	.L112
.L101:
	.loc 1 48 0
	movw	r1, #22035
	mov	r0, r6
	movt	r1, 16388
	mov	r2, r4
	bl	v4l2_ioctl
.LVL111:
	.loc 1 49 0
	adds	r0, r0, #1
.LVL112:
	beq	.L113
.LBE38:
.LBE37:
	.loc 1 212 0
	movw	r6, #:lower16:n_buffers
.LVL113:
	movw	r4, #:lower16:i
	movt	r6, #:upper16:n_buffers
	movt	r4, #:upper16:i
	ldr	r2, [r6]
	movw	r7, #:lower16:buffers
	movs	r3, #0
	movt	r7, #:upper16:buffers
	str	r3, [r4]
	cbz	r2, .L104
.LVL114:
.L103:
	.loc 1 213 0 discriminator 3
	ldr	r2, [r7]
	add	r1, r2, r3, lsl #3
	ldr	r0, [r2, r3, lsl #3]
	ldr	r1, [r1, #4]
	bl	v4l2_munmap
.LVL115:
	.loc 1 212 0 discriminator 3
	ldr	r3, [r4]
	ldr	r2, [r6]
	adds	r3, r3, #1
	str	r3, [r4]
	cmp	r2, r3
	bhi	.L103
.L104:
	.loc 1 214 0
	ldr	r0, [r5, #84]
	bl	v4l2_close
.LVL116:
	.loc 1 215 0
	add	sp, sp, #12
	.cfi_remember_state
	.cfi_def_cfa_offset 20
	@ sp needed
	pop	{r4, r5, r6, r7, pc}
.LVL117:
.L112:
	.cfi_restore_state
.LBB40:
.LBB39:
	bl	xioctl.part.0
.LVL118:
.LBE39:
.LBE40:
	.cfi_endproc
.LFE130:
	.size	close_video, .-close_video
	.align	2
	.global	embedpy
	.thumb
	.thumb_func
	.type	embedpy, %function
embedpy:
.LFB135:
	.loc 1 256 0
	.cfi_startproc
	@ args = 0, pretend = 0, frame = 0
	@ frame_needed = 0, uses_anonymous_args = 0
	push	{r3, lr}
	.cfi_def_cfa_offset 8
	.cfi_offset 3, -8
	.cfi_offset 14, -4
	.loc 1 257 0
	bl	Py_Initialize
.LVL119:
	.loc 1 258 0
	movw	r0, #:lower16:.LC2
	movw	r1, #:lower16:init_cougartech
	movt	r0, #:upper16:.LC2
	movt	r1, #:upper16:init_cougartech
	bl	PyImport_AppendInittab
.LVL120:
	.loc 1 259 0
	bl	PyEval_InitThreads
.LVL121:
	.loc 1 260 0
	movw	r0, #:lower16:.LC11
	movt	r0, #:upper16:.LC11
	movs	r1, #0
	bl	PyRun_SimpleStringFlags
.LVL122:
	.loc 1 262 0
	pop	{r3, lr}
	.cfi_restore 14
	.cfi_restore 3
	.cfi_def_cfa_offset 0
	.loc 1 261 0
	b	Py_Finalize
.LVL123:
	.cfi_endproc
.LFE135:
	.size	embedpy, .-embedpy
	.section	.text.startup,"ax",%progbits
	.align	2
	.global	main
	.thumb
	.thumb_func
	.type	main, %function
main:
.LFB131:
	.loc 1 218 0
	.cfi_startproc
	@ args = 0, pretend = 0, frame = 0
	@ frame_needed = 0, uses_anonymous_args = 0
.LVL124:
	push	{r4, r5, r6, lr}
	.cfi_def_cfa_offset 16
	.cfi_offset 4, -16
	.cfi_offset 5, -12
	.cfi_offset 6, -8
	.cfi_offset 14, -4
	.loc 1 219 0
	movw	r6, #:lower16:led_task
	.loc 1 218 0
	sub	sp, sp, #8
	.cfi_def_cfa_offset 24
	.loc 1 219 0
	movs	r4, #0
	movt	r6, #:upper16:led_task
	movw	r1, #:lower16:.LC12
.LVL125:
	mov	r2, r4
	mov	r0, r6
.LVL126:
	str	r4, [sp]
	movt	r1, #:upper16:.LC12
	movs	r3, #99
	.loc 1 220 0
	movw	r5, #:lower16:acquire_task
	.loc 1 219 0
	bl	rt_task_create
.LVL127:
	.loc 1 220 0
	movt	r5, #:upper16:acquire_task
	movw	r1, #:lower16:.LC13
	mov	r2, r4
	str	r4, [sp]
	mov	r0, r5
	movt	r1, #:upper16:.LC13
	movs	r3, #90
	bl	rt_task_create
.LVL128:
	.loc 1 221 0
	movw	r0, #:lower16:vid_sync
	movs	r3, #1
	mov	r1, r4
	mov	r2, r4
	movt	r0, #:upper16:vid_sync
	bl	rt_event_create
.LVL129:
	.loc 1 223 0
	movw	r1, #:lower16:led
	mov	r2, r4
	mov	r0, r6
	movt	r1, #:upper16:led
	bl	rt_task_start
.LVL130:
	.loc 1 224 0
	movw	r1, #:lower16:acquire
	mov	r2, r4
	movt	r1, #:upper16:acquire
	mov	r0, r5
	bl	rt_task_start
.LVL131:
	.loc 1 226 0
	bl	embedpy
.LVL132:
	.loc 1 227 0
	mov	r0, r6
	bl	rt_task_delete
.LVL133:
	.loc 1 228 0
	mov	r0, r5
	bl	rt_task_delete
.LVL134:
	.loc 1 229 0
	bl	close_video
.LVL135:
	.loc 1 230 0
	movw	r3, #:lower16:.LANCHOR0
	movt	r3, #:upper16:.LANCHOR0
	movw	r1, #:lower16:.LC1
	ldr	r0, [r3, #32]
	movt	r1, #:upper16:.LC1
	movs	r2, #1
	bl	write
.LVL136:
	.loc 1 232 0
	mov	r0, r4
	add	sp, sp, #8
	.cfi_def_cfa_offset 16
	@ sp needed
	pop	{r4, r5, r6, pc}
	.cfi_endproc
.LFE131:
	.size	main, .-main
	.text
	.align	2
	.global	embedit2
	.thumb
	.thumb_func
	.type	embedit2, %function
embedit2:
.LFB136:
	.loc 1 265 0
	.cfi_startproc
	@ args = 0, pretend = 0, frame = 0
	@ frame_needed = 0, uses_anonymous_args = 0
	@ link register save eliminated.
	bx	lr
	.cfi_endproc
.LFE136:
	.size	embedit2, .-embedit2
	.comm	img,230400,4
	.global	dev_name
	.comm	n_buffers,4,4
	.comm	i,4,4
	.global	vid_fd
	.comm	r,4,4
	.comm	tv,8,4
	.comm	fds,128,4
	.comm	buffers,4,4
	.global	avgt
	.global	avg
	.global	led_fd
	.comm	acquire_task,8,4
	.comm	led_task,8,4
	.comm	vid_sync,4,4
	.global	vid_conf
	.data
	.align	3
.LANCHOR0 = . + 0
	.type	vid_conf, %object
	.size	vid_conf, 32
vid_conf:
	.word	5000000
	.word	800000
	.word	1
	.word	1
	.word	0
	.word	1077149696
	.word	0
	.space	4
	.type	led_fd, %object
	.size	led_fd, 4
led_fd:
	.word	-1
	.type	CTMethods, %object
	.size	CTMethods, 48
CTMethods:
	.word	.LC14
	.word	py_addrs
	.word	1
	.word	0
	.word	.LC15
	.word	py_avg
	.word	1
	.word	0
	.word	0
	.word	0
	.word	0
	.word	0
	.type	vid_fd, %object
	.size	vid_fd, 4
vid_fd:
	.word	-1
	.type	dev_name, %object
	.size	dev_name, 4
dev_name:
	.word	.LC16
	.section	.rodata.str1.4,"aMS",%progbits,1
	.align	2
.LC0:
	.ascii	"0\000"
	.space	2
.LC1:
	.ascii	"1\000"
	.space	2
.LC2:
	.ascii	"_ct\000"
.LC3:
	.ascii	"cougar tech interface\000"
	.space	2
.LC4:
	.ascii	"l\000"
	.space	2
.LC5:
	.ascii	"iii\000"
.LC6:
	.ascii	"error %d, %s\012\000"
	.space	2
.LC7:
	.ascii	"Libv4l didn't accept requested format. Can't procee"
	.ascii	"d.\000"
	.space	2
.LC8:
	.ascii	"Warning: driver is sending image at %dx%d\012\000"
	.space	1
.LC9:
	.ascii	"mmap\000"
	.space	3
.LC10:
	.ascii	"/sys/class/gpio/gpio15/value\000"
	.space	3
.LC11:
	.ascii	"execfile('xenovid.py')\000"
	.space	1
.LC12:
	.ascii	"led\000"
.LC13:
	.ascii	"acquire\000"
.LC14:
	.ascii	"addrs\000"
	.space	2
.LC15:
	.ascii	"avg\000"
.LC16:
	.ascii	"/dev/video0\000"
	.bss
	.align	2
.LANCHOR1 = . + 0
	.type	avg, %object
	.size	avg, 4
avg:
	.space	4
	.type	avgt, %object
	.size	avgt, 4
avgt:
	.space	4
	.text
.Letext0:
	.file 2 "/usr/lib/gcc/arm-linux-gnueabihf/4.9/include/stddef.h"
	.file 3 "/usr/include/arm-linux-gnueabihf/bits/types.h"
	.file 4 "/usr/include/stdio.h"
	.file 5 "/usr/include/libio.h"
	.file 6 "/usr/include/arm-linux-gnueabihf/sys/types.h"
	.file 7 "/usr/include/arm-linux-gnueabihf/bits/time.h"
	.file 8 "/usr/include/arm-linux-gnueabihf/sys/select.h"
	.file 9 "/usr/include/asm-generic/int-ll64.h"
	.file 10 "/usr/include/linux/v4l2-controls.h"
	.file 11 "/usr/include/linux/videodev2.h"
	.file 12 "/usr/include/python2.7/pyport.h"
	.file 13 "/usr/include/python2.7/object.h"
	.file 14 "/usr/include/python2.7/methodobject.h"
	.file 15 "/usr/include/python2.7/descrobject.h"
	.file 16 "/usr/include/python2.7/pythonrun.h"
	.file 17 "/usr/include/xenomai/asm/xenomai/tsc.h"
	.file 18 "/usr/include/xenomai/nucleus/types.h"
	.file 19 "/usr/include/xenomai/native/types.h"
	.file 20 "/usr/include/xenomai/native/task.h"
	.file 21 "/usr/include/xenomai/native/event.h"
	.file 22 "stronghold.h"
	.file 23 "/usr/include/unistd.h"
	.file 24 "/usr/include/python2.7/modsupport.h"
	.file 25 "/usr/include/string.h"
	.file 26 "/usr/include/stdlib.h"
	.file 27 "/usr/include/libv4l2.h"
	.file 28 "<built-in>"
	.file 29 "/usr/include/fcntl.h"
	.file 30 "/usr/include/arm-linux-gnueabihf/bits/errno.h"
	.file 31 "/usr/include/xenomai/native/timer.h"
	.file 32 "/usr/include/python2.7/import.h"
	.file 33 "/usr/include/python2.7/ceval.h"
	.section	.note.GNU-stack,"",%progbits
